target datalayout = "e-m:e-p270:32:32-p271:32:32-p272:64:64-i64:64-i128:128-f80:128-n8:16:32:64-S128"
target triple = "x86_64-pc-linux-gnu"

; Function Attrs: nounwind uwtable
define hidden i64 @lj_carith_modi64(i64 noundef %0, i64 noundef %1) #0 {
  %3 = alloca i64, align 8
  %4 = alloca i64, align 8
  %5 = alloca i64, align 8
  store i64 %0, ptr %4, align 8, !tbaa !58
  store i64 %1, ptr %5, align 8, !tbaa !58
  %6 = load i64, ptr %5, align 8, !tbaa !58
  %7 = icmp eq i64 %6, 0
  br i1 %7, label %8, label %9

8:                                                ; preds = %2
  store i64 -9223372036854775808, ptr %3, align 8
  br label %20

9:                                                ; preds = %2
  %10 = load i64, ptr %4, align 8, !tbaa !58
  %11 = icmp eq i64 %10, -9223372036854775808
  br i1 %11, label %12, label %16

12:                                               ; preds = %9
  %13 = load i64, ptr %5, align 8, !tbaa !58
  %14 = icmp eq i64 %13, -1
  br i1 %14, label %15, label %16

15:                                               ; preds = %12
  store i64 0, ptr %3, align 8
  br label %20

16:                                               ; preds = %12, %9
  %17 = load i64, ptr %4, align 8, !tbaa !58
  %18 = load i64, ptr %5, align 8, !tbaa !58
  %19 = srem i64 %17, %18
  store i64 %19, ptr %3, align 8
  br label %20

20:                                               ; preds = %16, %15, %8
  %21 = load i64, ptr %3, align 8
  ret i64 %21
}